; ModuleID = 'source-C-CXX/52/1579.c'
source_filename = "source-C-CXX/52/1579.c"
target datalayout = "e-m:e-p270:32:32-p271:32:32-p272:64:64-i64:64-f80:128-n8:16:32:64-S128"
target triple = "x86_64-pc-linux-gnu"

@.str = private unnamed_addr constant [3 x i8] c"%d\00", align 1

; Function Attrs: nofree nounwind sspstrong uwtable
define dso_local i32 @main() local_unnamed_addr #0 {
  %1 = alloca i32, align 4
  %2 = alloca [300 x i32], align 16
  %3 = alloca i32, align 4
  %4 = bitcast i32* %1 to i8*
  call void @llvm.lifetime.start.p0i8(i64 4, i8* nonnull %4) #4
  %5 = bitcast [300 x i32]* %2 to i8*
  call void @llvm.lifetime.start.p0i8(i64 1200, i8* nonnull %5) #4
  %6 = bitcast i32* %3 to i8*
  call void @llvm.lifetime.start.p0i8(i64 4, i8* nonnull %6) #4
  %7 = call i32 (i8*, ...) @__isoc99_scanf(i8* getelementptr inbounds ([3 x i8], [3 x i8]* @.str, i64 0, i64 0), i32* nonnull %1)
  %8 = getelementptr inbounds [300 x i32], [300 x i32]* %2, i64 0, i64 0
  %9 = call i32 (i8*, ...) @__isoc99_scanf(i8* getelementptr inbounds ([3 x i8], [3 x i8]* @.str, i64 0, i64 0), i32* nonnull %8)
  %10 = load i32, i32* %1, align 4, !tbaa !5
  %11 = icmp sgt i32 %10, 1
  br i1 %11, label %18, label %14

12:                                               ; preds = %41
  %13 = icmp sgt i32 %42, 1
  br i1 %13, label %46, label %14

14:                                               ; preds = %0, %12
  %15 = phi i32 [ %42, %12 ], [ %10, %0 ]
  %16 = add nsw i32 %15, -1
  %17 = sext i32 %16 to i64
  br label %57

18:                                               ; preds = %0, %41
  %19 = phi i32 [ %44, %41 ], [ 1, %0 ]
  %20 = call i32 (i8*, ...) @__isoc99_scanf(i8* getelementptr inbounds ([3 x i8], [3 x i8]* @.str, i64 0, i64 0), i32* nonnull %3)
  %21 = load i32, i32* %3, align 4
  %22 = icmp sgt i32 %19, 0
  br i1 %22, label %23, label %37

23:                                               ; preds = %18
  %24 = zext i32 %19 to i64
  br label %27

25:                                               ; preds = %27
  %26 = icmp eq i64 %32, %24
  br i1 %26, label %37, label %27, !llvm.loop !9

27:                                               ; preds = %23, %25
  %28 = phi i64 [ 0, %23 ], [ %32, %25 ]
  %29 = getelementptr inbounds [300 x i32], [300 x i32]* %2, i64 0, i64 %28
  %30 = load i32, i32* %29, align 4, !tbaa !5
  %31 = icmp eq i32 %21, %30
  %32 = add nuw nsw i64 %28, 1
  br i1 %31, label %33, label %25

33:                                               ; preds = %27
  %34 = add nsw i32 %19, -1
  %35 = load i32, i32* %1, align 4, !tbaa !5
  %36 = add nsw i32 %35, -1
  store i32 %36, i32* %1, align 4, !tbaa !5
  br label %41

37:                                               ; preds = %25, %18
  %38 = sext i32 %19 to i64
  %39 = getelementptr inbounds [300 x i32], [300 x i32]* %2, i64 0, i64 %38
  store i32 %21, i32* %39, align 4, !tbaa !5
  %40 = load i32, i32* %1, align 4, !tbaa !5
  br label %41

41:                                               ; preds = %37, %33
  %42 = phi i32 [ %36, %33 ], [ %40, %37 ]
  %43 = phi i32 [ %34, %33 ], [ %19, %37 ]
  %44 = add nsw i32 %43, 1
  %45 = icmp slt i32 %44, %42
  br i1 %45, label %18, label %12, !llvm.loop !11

46:                                               ; preds = %12, %46
  %47 = phi i64 [ %52, %46 ], [ 0, %12 ]
  %48 = getelementptr inbounds [300 x i32], [300 x i32]* %2, i64 0, i64 %47
  %49 = load i32, i32* %48, align 4, !tbaa !5
  %50 = call i32 (i8*, ...) @printf(i8* nonnull dereferenceable(1) getelementptr inbounds ([3 x i8], [3 x i8]* @.str, i64 0, i64 0), i32 %49)
  %51 = call i32 @putchar(i32 44)
  %52 = add nuw nsw i64 %47, 1
  %53 = load i32, i32* %1, align 4, !tbaa !5
  %54 = add nsw i32 %53, -1
  %55 = sext i32 %54 to i64
  %56 = icmp slt i64 %52, %55
  br i1 %56, label %46, label %57, !llvm.loop !12

57:                                               ; preds = %46, %14
  %58 = phi i64 [ %17, %14 ], [ %55, %46 ]
  %59 = getelementptr inbounds [300 x i32], [300 x i32]* %2, i64 0, i64 %58
  %60 = load i32, i32* %59, align 4, !tbaa !5
  %61 = call i32 (i8*, ...) @printf(i8* nonnull dereferenceable(1) getelementptr inbounds ([3 x i8], [3 x i8]* @.str, i64 0, i64 0), i32 %60)
  call void @llvm.lifetime.end.p0i8(i64 4, i8* nonnull %6) #4
  call void @llvm.lifetime.end.p0i8(i64 1200, i8* nonnull %5) #4
  call void @llvm.lifetime.end.p0i8(i64 4, i8* nonnull %4) #4
  ret i32 0
}

; Function Attrs: argmemonly mustprogress nofree nosync nounwind willreturn
declare void @llvm.lifetime.start.p0i8(i64 immarg, i8* nocapture) #1

; Function Attrs: nofree nounwind
declare noundef i32 @__isoc99_scanf(i8* nocapture noundef readonly, ...) local_unnamed_addr #2

; Function Attrs: nofree nounwind
declare noundef i32 @printf(i8* nocapture noundef readonly, ...) local_unnamed_addr #2

; Function Attrs: argmemonly mustprogress nofree nosync nounwind willreturn
declare void @llvm.lifetime.end.p0i8(i64 immarg, i8* nocapture) #1

; Function Attrs: nofree nounwind
declare noundef i32 @putchar(i32 noundef) local_unnamed_addr #3


!llvm.module.flags = !{!0, !1, !2, !3}
!llvm.ident = !{!4}

!0 = !{i32 1, !"wchar_size", i32 4}
!1 = !{i32 7, !"PIC Level", i32 2}
!2 = !{i32 7, !"PIE Level", i32 2}
!3 = !{i32 7, !"uwtable", i32 1}
!4 = !{!"clang version 13.0.0"}
!5 = !{!6, !6, i64 0}
!6 = !{!"int", !7, i64 0}
!7 = !{!"omnipotent char", !8, i64 0}
!8 = !{!"Simple C/C++ TBAA"}
!9 = distinct !{!9, !10}
!10 = !{!"llvm.loop.mustprogress"}
!11 = distinct !{!11, !10}
!12 = distinct !{!12, !10}
